; Function Attrs: inlinehint nounwind uwtable
define internal fastcc void @cpuid(i32 noundef range(i32 1, 8) %0, ptr noundef nonnull %1, ptr noundef nonnull %2, ptr noundef nonnull %3, ptr noundef nonnull %4) unnamed_addr #1 {
  %6 = tail call { i32, i32, i32, i32 } asm "  xchgq  %rbx,${1:q}\0A  cpuid\0A  xchgq  %rbx,${1:q}", "={ax},=r,={cx},={dx},0,2,~{dirflag},~{fpsr},~{flags}"(i32 %0, i32 0) #5, !srcloc !5
  %7 = extractvalue { i32, i32, i32, i32 } %6, 0
  %8 = extractvalue { i32, i32, i32, i32 } %6, 1
  %9 = extractvalue { i32, i32, i32, i32 } %6, 2
  %10 = extractvalue { i32, i32, i32, i32 } %6, 3
  store i32 %7, ptr %1, align 4
  store i32 %8, ptr %2, align 4
  store i32 %9, ptr %3, align 4
  store i32 %10, ptr %4, align 4
  ret void
}